; Function Attrs: null_pointer_is_valid sspstrong uwtable
define internal noalias noundef ptr @pbadv_fragment_persistent_key(ptr readnone captures(none) %0, i32 %1, ptr noundef readonly captures(none) %2) #0 {
  %4 = tail call noalias dereferenceable_or_null(8) ptr @g_slice_alloc(i64 noundef 8) #6
  %5 = load i32, ptr %2, align 4
  store i32 %5, ptr %4, align 4
  %6 = getelementptr inbounds nuw i8, ptr %2, i64 4
  %7 = load i8, ptr %6, align 4
  %8 = getelementptr inbounds nuw i8, ptr %4, i64 4
  store i8 %7, ptr %8, align 4
  ret ptr %4
}